target datalayout = "e-m:e-p270:32:32-p271:32:32-p272:64:64-i64:64-i128:128-f80:128-n8:16:32:64-S128"
target triple = "x86_64-pc-linux-gnu"

%struct.Gia_Man_t_ = type { ptr, ptr, i32, i32, i32, i32, ptr, ptr, i32, i32, i32, ptr, ptr, %struct.Vec_Int_t_, %struct.Vec_Int_t_, i32, i32, i32, %struct.Vec_Int_t_, ptr, ptr, ptr, i32, i32, i32, i32, ptr, ptr, ptr, ptr, ptr, i32, i32, ptr, i32, ptr, ptr, ptr, ptr, ptr, ptr, ptr, ptr, ptr, ptr, ptr, ptr, ptr, ptr, ptr, ptr, ptr, ptr, %struct.Vec_Int_t_, %struct.Vec_Int_t_, ptr, ptr, ptr, ptr, ptr, ptr, ptr, ptr, ptr, ptr, ptr, ptr, ptr, ptr, ptr, ptr, ptr, ptr, ptr, ptr, ptr, i32, float, float, ptr, ptr, i32, ptr, ptr, ptr, ptr, ptr, ptr, ptr, ptr, ptr, ptr, ptr, ptr, ptr, ptr, ptr, i64, i64, ptr, ptr, i32, i32, i32, i32, i32, i32, i32, i32, i32, i32, i32, i32, ptr, ptr, ptr, ptr, ptr, ptr, ptr, ptr, i32, i32, i32, ptr, i32, i32, ptr, ptr, ptr, ptr, ptr, ptr, i32, i32, ptr, %struct.Vec_Int_t_, %struct.Vec_Int_t_, %struct.Vec_Int_t_, ptr, ptr, ptr, i32, i32, i32, i32, ptr, ptr, ptr, ptr, ptr }
%struct.Vec_Int_t_ = type { i32, i32, ptr }
%struct.Sfm_Par_t_ = type { i32, i32, i32, i32, i32, i32, i32, i32, i32, i32, i32, i32, i32, i32, i32, i32, i32, i32, i32, i32, i32, i32, i32, i32, i32, i32, i32, i32, i32, i32, i32 }

@.str = private unnamed_addr constant [55 x i8] c"Timing manager is given but there is no GIA of boxes.\0A\00", align 1
@.str.1 = private unnamed_addr constant [94 x i8] c"Currently \22&mfs\22 cannot process the network containing white-boxes with more than 15 inputs.\0A\00", align 1
@.str.2 = private unnamed_addr constant [88 x i8] c"Currently \22&mfs\22 cannot process the network containing nodes with more than 15 fanins.\0A\00", align 1
@.str.3 = private unnamed_addr constant [39 x i8] c"The network is not changed by \22&mfs\22.\0A\00", align 1
@.str.4 = private unnamed_addr constant [45 x i8] c"The network has %d nodes changed by \22&mfs\22.\0A\00", align 1

; Function Attrs: inlinehint nounwind uwtable
define internal i32 @Vec_IntSize(ptr noundef %0) #4 {
  %2 = alloca ptr, align 8
  store ptr %0, ptr %2, align 8, !tbaa !35
  %3 = load ptr, ptr %2, align 8, !tbaa !35
  %4 = getelementptr inbounds nuw %struct.Vec_Int_t_, ptr %3, i32 0, i32 1
  %5 = load i32, ptr %4, align 4, !tbaa !66
  ret i32 %5
}

; Function Attrs: inlinehint nounwind uwtable
define internal ptr @Vec_IntDup(ptr noundef %0) #4 {
  %2 = alloca ptr, align 8
  %3 = alloca ptr, align 8
  store ptr %0, ptr %2, align 8, !tbaa !35
  call void @llvm.lifetime.start.p0(i64 8, ptr %3) #13
  %4 = call noalias ptr @malloc(i64 noundef 16) #14
  store ptr %4, ptr %3, align 8, !tbaa !35
  %5 = load ptr, ptr %2, align 8, !tbaa !35
  %6 = getelementptr inbounds nuw %struct.Vec_Int_t_, ptr %5, i32 0, i32 1
  %7 = load i32, ptr %6, align 4, !tbaa !66
  %8 = load ptr, ptr %3, align 8, !tbaa !35
  %9 = getelementptr inbounds nuw %struct.Vec_Int_t_, ptr %8, i32 0, i32 1
  store i32 %7, ptr %9, align 4, !tbaa !66
  %10 = load ptr, ptr %2, align 8, !tbaa !35
  %11 = getelementptr inbounds nuw %struct.Vec_Int_t_, ptr %10, i32 0, i32 1
  %12 = load i32, ptr %11, align 4, !tbaa !66
  %13 = load ptr, ptr %3, align 8, !tbaa !35
  %14 = getelementptr inbounds nuw %struct.Vec_Int_t_, ptr %13, i32 0, i32 0
  store i32 %12, ptr %14, align 8, !tbaa !71
  %15 = load ptr, ptr %3, align 8, !tbaa !35
  %16 = getelementptr inbounds nuw %struct.Vec_Int_t_, ptr %15, i32 0, i32 0
  %17 = load i32, ptr %16, align 8, !tbaa !71
  %18 = icmp ne i32 %17, 0
  br i1 %18, label %19, label %26

19:                                               ; preds = %1
  %20 = load ptr, ptr %3, align 8, !tbaa !35
  %21 = getelementptr inbounds nuw %struct.Vec_Int_t_, ptr %20, i32 0, i32 0
  %22 = load i32, ptr %21, align 8, !tbaa !71
  %23 = sext i32 %22 to i64
  %24 = mul i64 4, %23
  %25 = call noalias ptr @malloc(i64 noundef %24) #14
  br label %27

26:                                               ; preds = %1
  br label %27

27:                                               ; preds = %26, %19
  %28 = phi ptr [ %25, %19 ], [ null, %26 ]
  %29 = load ptr, ptr %3, align 8, !tbaa !35
  %30 = getelementptr inbounds nuw %struct.Vec_Int_t_, ptr %29, i32 0, i32 2
  store ptr %28, ptr %30, align 8, !tbaa !67
  %31 = load ptr, ptr %3, align 8, !tbaa !35
  %32 = getelementptr inbounds nuw %struct.Vec_Int_t_, ptr %31, i32 0, i32 2
  %33 = load ptr, ptr %32, align 8, !tbaa !67
  %34 = load ptr, ptr %2, align 8, !tbaa !35
  %35 = getelementptr inbounds nuw %struct.Vec_Int_t_, ptr %34, i32 0, i32 2
  %36 = load ptr, ptr %35, align 8, !tbaa !67
  %37 = load ptr, ptr %2, align 8, !tbaa !35
  %38 = getelementptr inbounds nuw %struct.Vec_Int_t_, ptr %37, i32 0, i32 1
  %39 = load i32, ptr %38, align 4, !tbaa !66
  %40 = sext i32 %39 to i64
  %41 = mul i64 4, %40
  call void @llvm.memcpy.p0.p0.i64(ptr align 4 %33, ptr align 4 %36, i64 %41, i1 false)
  %42 = load ptr, ptr %3, align 8, !tbaa !35
  call void @llvm.lifetime.end.p0(i64 8, ptr %3) #13
  ret ptr %42
}

; Function Attrs: inlinehint nounwind uwtable
define internal i32 @Gia_ManCiNum(ptr noundef %0) #4 {
  %2 = alloca ptr, align 8
  store ptr %0, ptr %2, align 8, !tbaa !3
  %3 = load ptr, ptr %2, align 8, !tbaa !3
  %4 = getelementptr inbounds nuw %struct.Gia_Man_t_, ptr %3, i32 0, i32 11
  %5 = load ptr, ptr %4, align 8, !tbaa !36
  %6 = call i32 @Vec_IntSize(ptr noundef %5)
  ret i32 %6
}

; Function Attrs: nounwind uwtable
define ptr @Gia_ManPerformMfs(ptr noundef %0, ptr noundef %1) #0 {
  %3 = alloca ptr, align 8
  %4 = alloca ptr, align 8
  %5 = alloca ptr, align 8
  %6 = alloca ptr, align 8
  %7 = alloca ptr, align 8
  %8 = alloca i32, align 4
  %9 = alloca i32, align 4
  %10 = alloca i32, align 4
  store ptr %0, ptr %4, align 8, !tbaa !3
  store ptr %1, ptr %5, align 8, !tbaa !103
  call void @llvm.lifetime.start.p0(i64 8, ptr %6) #13
  call void @llvm.lifetime.start.p0(i64 8, ptr %7) #13
  call void @llvm.lifetime.start.p0(i64 4, ptr %8) #13
  call void @llvm.lifetime.start.p0(i64 4, ptr %9) #13
  %11 = load ptr, ptr %4, align 8, !tbaa !3
  %12 = getelementptr inbounds nuw %struct.Gia_Man_t_, ptr %11, i32 0, i32 95
  %13 = load ptr, ptr %12, align 8, !tbaa !8
  %14 = icmp ne ptr %13, null
  br i1 %14, label %15, label %21

15:                                               ; preds = %2
  %16 = load ptr, ptr %4, align 8, !tbaa !3
  %17 = getelementptr inbounds nuw %struct.Gia_Man_t_, ptr %16, i32 0, i32 68
  %18 = load ptr, ptr %17, align 8, !tbaa !48
  %19 = icmp eq ptr %18, null
  br i1 %19, label %20, label %21

20:                                               ; preds = %15
  call void (i32, ptr, ...) @Abc_Print(i32 noundef 1, ptr noundef @.str)
  store ptr null, ptr %3, align 8
  store i32 1, ptr %10, align 4
  br label %86

21:                                               ; preds = %15, %2
  %22 = load ptr, ptr %4, align 8, !tbaa !3
  %23 = getelementptr inbounds nuw %struct.Gia_Man_t_, ptr %22, i32 0, i32 95
  %24 = load ptr, ptr %23, align 8, !tbaa !8
  %25 = icmp ne ptr %24, null
  br i1 %25, label %26, label %38

26:                                               ; preds = %21
  %27 = load ptr, ptr %4, align 8, !tbaa !3
  %28 = getelementptr inbounds nuw %struct.Gia_Man_t_, ptr %27, i32 0, i32 68
  %29 = load ptr, ptr %28, align 8, !tbaa !48
  %30 = icmp ne ptr %29, null
  br i1 %30, label %31, label %38

31:                                               ; preds = %26
  %32 = load ptr, ptr %4, align 8, !tbaa !3
  %33 = getelementptr inbounds nuw %struct.Gia_Man_t_, ptr %32, i32 0, i32 68
  %34 = load ptr, ptr %33, align 8, !tbaa !48
  %35 = call i32 @Gia_ManCiNum(ptr noundef %34)
  %36 = icmp sgt i32 %35, 15
  br i1 %36, label %37, label %38

37:                                               ; preds = %31
  call void (i32, ptr, ...) @Abc_Print(i32 noundef 1, ptr noundef @.str.1)
  store ptr null, ptr %3, align 8
  store i32 1, ptr %10, align 4
  br label %86

38:                                               ; preds = %31, %26, %21
  %39 = load ptr, ptr %4, align 8, !tbaa !3
  %40 = call i32 @Gia_ManLutSizeMax(ptr noundef %39)
  store i32 %40, ptr %8, align 4, !tbaa !31
  %41 = load i32, ptr %8, align 4, !tbaa !31
  %42 = icmp sgt i32 %41, 15
  br i1 %42, label %43, label %44

43:                                               ; preds = %38
  call void (i32, ptr, ...) @Abc_Print(i32 noundef 1, ptr noundef @.str.2)
  store ptr null, ptr %3, align 8
  store i32 1, ptr %10, align 4
  br label %86

44:                                               ; preds = %38
  %45 = load ptr, ptr %4, align 8, !tbaa !3
  %46 = call ptr @Gia_ManExtractMfs(ptr noundef %45)
  store ptr %46, ptr %6, align 8, !tbaa !79
  %47 = load ptr, ptr %6, align 8, !tbaa !79
  %48 = load ptr, ptr %5, align 8, !tbaa !103
  %49 = call i32 @Sfm_NtkPerform(ptr noundef %47, ptr noundef %48)
  store i32 %49, ptr %9, align 4, !tbaa !31
  %50 = load i32, ptr %9, align 4, !tbaa !31
  %51 = icmp eq i32 %50, 0
  br i1 %51, label %52, label %69

52:                                               ; preds = %44
  %53 = load ptr, ptr %4, align 8, !tbaa !3
  %54 = getelementptr inbounds nuw %struct.Gia_Man_t_, ptr %53, i32 0, i32 95
  %55 = load ptr, ptr %54, align 8, !tbaa !8
  %56 = icmp ne ptr %55, null
  br i1 %56, label %57, label %58

57:                                               ; preds = %52
  call void (i32, ptr, ...) @Abc_Print(i32 noundef 1, ptr noundef @.str.3)
  br label %58

58:                                               ; preds = %57, %52
  %59 = load ptr, ptr %4, align 8, !tbaa !3
  %60 = call ptr @Gia_ManDup(ptr noundef %59)
  store ptr %60, ptr %7, align 8, !tbaa !3
  %61 = load ptr, ptr %4, align 8, !tbaa !3
  %62 = getelementptr inbounds nuw %struct.Gia_Man_t_, ptr %61, i32 0, i32 37
  %63 = load ptr, ptr %62, align 8, !tbaa !73
  %64 = call ptr @Vec_IntDup(ptr noundef %63)
  %65 = load ptr, ptr %7, align 8, !tbaa !3
  %66 = getelementptr inbounds nuw %struct.Gia_Man_t_, ptr %65, i32 0, i32 37
  store ptr %64, ptr %66, align 8, !tbaa !73
  %67 = load ptr, ptr %7, align 8, !tbaa !3
  %68 = load ptr, ptr %4, align 8, !tbaa !3
  call void @Gia_ManTransferTiming(ptr noundef %67, ptr noundef %68)
  br label %83

69:                                               ; preds = %44
  %70 = load ptr, ptr %4, align 8, !tbaa !3
  %71 = load ptr, ptr %6, align 8, !tbaa !79
  %72 = load ptr, ptr %5, align 8, !tbaa !103
  %73 = getelementptr inbounds nuw %struct.Sfm_Par_t_, ptr %72, i32 0, i32 26
  %74 = load i32, ptr %73, align 4, !tbaa !105
  %75 = call ptr @Gia_ManInsertMfs(ptr noundef %70, ptr noundef %71, i32 noundef %74)
  store ptr %75, ptr %7, align 8, !tbaa !3
  %76 = load ptr, ptr %5, align 8, !tbaa !103
  %77 = getelementptr inbounds nuw %struct.Sfm_Par_t_, ptr %76, i32 0, i32 29
  %78 = load i32, ptr %77, align 4, !tbaa !107
  %79 = icmp ne i32 %78, 0
  br i1 %79, label %80, label %82

80:                                               ; preds = %69
  %81 = load i32, ptr %9, align 4, !tbaa !31
  call void (i32, ptr, ...) @Abc_Print(i32 noundef 1, ptr noundef @.str.4, i32 noundef %81)
  br label %82

82:                                               ; preds = %80, %69
  br label %83

83:                                               ; preds = %82, %58
  %84 = load ptr, ptr %6, align 8, !tbaa !79
  call void @Sfm_NtkFree(ptr noundef %84)
  %85 = load ptr, ptr %7, align 8, !tbaa !3
  store ptr %85, ptr %3, align 8
  store i32 1, ptr %10, align 4
  br label %86

86:                                               ; preds = %83, %43, %37, %20
  call void @llvm.lifetime.end.p0(i64 4, ptr %9) #13
  call void @llvm.lifetime.end.p0(i64 4, ptr %8) #13
  call void @llvm.lifetime.end.p0(i64 8, ptr %7) #13
  call void @llvm.lifetime.end.p0(i64 8, ptr %6) #13
  %87 = load ptr, ptr %3, align 8
  ret ptr %87
}