; Function Attrs: nounwind uwtable
define ptr @Gia_ManPerformMfs(ptr noundef %0, ptr noundef %1) local_unnamed_addr #0 {
  %3 = getelementptr inbounds nuw i8, ptr %0, i64 736
  %4 = load ptr, ptr %3, align 8, !tbaa !3
  %.not = icmp eq ptr %4, null
  br i1 %.not, label %.thread, label %5

5:                                                ; preds = %2
  %6 = getelementptr inbounds nuw i8, ptr %0, i64 528
  %7 = load ptr, ptr %6, align 8, !tbaa !59
  %8 = icmp eq ptr %7, null
  br i1 %8, label %9, label %10

9:                                                ; preds = %5
  tail call void (i32, ptr, ...) @Abc_Print(i32 poison, ptr noundef nonnull @.str)
  br label %50

10:                                               ; preds = %5
  %11 = getelementptr i8, ptr %7, i64 64
  %.val = load ptr, ptr %11, align 8, !tbaa !29
  %12 = getelementptr i8, ptr %.val, i64 4
  %.val.val = load i32, ptr %12, align 4, !tbaa !30
  %13 = icmp sgt i32 %.val.val, 15
  br i1 %13, label %14, label %.thread

14:                                               ; preds = %10
  tail call void (i32, ptr, ...) @Abc_Print(i32 poison, ptr noundef nonnull @.str.1)
  br label %50

.thread:                                          ; preds = %2, %10
  %15 = tail call i32 @Gia_ManLutSizeMax(ptr noundef nonnull %0) #18
  %16 = icmp sgt i32 %15, 15
  br i1 %16, label %17, label %18

17:                                               ; preds = %.thread
  tail call void (i32, ptr, ...) @Abc_Print(i32 poison, ptr noundef nonnull @.str.2)
  br label %50

18:                                               ; preds = %.thread
  %19 = tail call ptr @Gia_ManExtractMfs(ptr noundef nonnull %0)
  %20 = tail call i32 @Sfm_NtkPerform(ptr noundef %19, ptr noundef %1) #18
  %21 = icmp eq i32 %20, 0
  br i1 %21, label %22, label %42

22:                                               ; preds = %18
  %23 = load ptr, ptr %3, align 8, !tbaa !3
  %.not30 = icmp eq ptr %23, null
  br i1 %.not30, label %25, label %24

24:                                               ; preds = %22
  tail call void (i32, ptr, ...) @Abc_Print(i32 poison, ptr noundef nonnull @.str.3)
  br label %25

25:                                               ; preds = %24, %22
  %26 = tail call ptr @Gia_ManDup(ptr noundef nonnull %0) #18
  %27 = getelementptr inbounds nuw i8, ptr %0, i64 264
  %28 = load ptr, ptr %27, align 8, !tbaa !53
  %29 = tail call noalias dereferenceable_or_null(16) ptr @malloc(i64 noundef 16) #19
  %30 = getelementptr inbounds nuw i8, ptr %28, i64 4
  %31 = load i32, ptr %30, align 4, !tbaa !30
  %32 = getelementptr inbounds nuw i8, ptr %29, i64 4
  store i32 %31, ptr %32, align 4, !tbaa !30
  store i32 %31, ptr %29, align 8, !tbaa !46
  %.not.i = icmp eq i32 %31, 0
  br i1 %.not.i, label %Vec_IntDup.exit, label %33

33:                                               ; preds = %25
  %34 = sext i32 %31 to i64
  %35 = shl nsw i64 %34, 2
  %36 = tail call noalias ptr @malloc(i64 noundef %35) #19
  br label %Vec_IntDup.exit

Vec_IntDup.exit:                                  ; preds = %25, %33
  %.pre-phi12.i = phi i64 [ %35, %33 ], [ 0, %25 ]
  %37 = phi ptr [ %36, %33 ], [ null, %25 ]
  %38 = getelementptr inbounds nuw i8, ptr %29, i64 8
  store ptr %37, ptr %38, align 8, !tbaa !47
  %39 = getelementptr inbounds nuw i8, ptr %28, i64 8
  %40 = load ptr, ptr %39, align 8, !tbaa !47
  tail call void @llvm.memcpy.p0.p0.i64(ptr align 4 %37, ptr align 4 %40, i64 %.pre-phi12.i, i1 false)
  %41 = getelementptr inbounds nuw i8, ptr %26, i64 264
  store ptr %29, ptr %41, align 8, !tbaa !53
  tail call void @Gia_ManTransferTiming(ptr noundef %26, ptr noundef nonnull %0) #18
  br label %49

42:                                               ; preds = %18
  %43 = getelementptr inbounds nuw i8, ptr %1, i64 104
  %44 = load i32, ptr %43, align 4, !tbaa !112
  %45 = tail call ptr @Gia_ManInsertMfs(ptr noundef nonnull %0, ptr noundef %19, i32 noundef %44)
  %46 = getelementptr inbounds nuw i8, ptr %1, i64 116
  %47 = load i32, ptr %46, align 4, !tbaa !114
  %.not29 = icmp eq i32 %47, 0
  br i1 %.not29, label %49, label %48

48:                                               ; preds = %42
  tail call void (i32, ptr, ...) @Abc_Print(i32 poison, ptr noundef nonnull @.str.4, i32 noundef %20)
  br label %49

49:                                               ; preds = %42, %48, %Vec_IntDup.exit
  %.024 = phi ptr [ %26, %Vec_IntDup.exit ], [ %45, %48 ], [ %45, %42 ]
  tail call void @Sfm_NtkFree(ptr noundef %19) #18
  br label %50

50:                                               ; preds = %49, %17, %14, %9
  %.0 = phi ptr [ null, %9 ], [ null, %14 ], [ null, %17 ], [ %.024, %49 ]
  ret ptr %.0
}